Certificate:
    Data:
        Version: 3 (0x2)
        Serial Number: 0 (0x0)
    Signature Algorithm: sha256WithRSAEncryption
        Issuer: C=CN, ST=JiangSu, L=NanJing, O=isoftstone, OU=sd, CN=isoftstone.com/emailAddress=xinlind@isoftstone.com
        Validity
            Not Before: Nov 18 03:11:59 2017 GMT
            Not After : Nov 18 03:12:00 2018 GMT
        Subject: C=CN, ST=JiangSu, O=isoftstone, OU=sd, CN=isoftstone.com/emailAddress=xinlind@isoftstone.com
        Subject Public Key Info:
            Public Key Algorithm: rsaEncryption
                Public-Key: (2048 bit)
                Modulus:
                    00:da:13:b5:89:9a:0a:e1:f6:1f:a7:38:99:43:3f:
                    11:94:31:61:8a:1f:ad:18:d1:cb:41:c5:da:43:31:
                    50:a0:6f:d1:6c:4f:cc:3d:16:a8:21:d6:75:47:2e:
                    70:34:5e:19:d3:aa:ce:f9:4c:b3:c0:cc:07:7f:88:
                    56:65:ce:69:c1:a4:5c:46:7a:26:5b:e9:85:61:b5:
                    51:89:49:77:78:06:0d:82:9c:a1:cd:f4:ae:43:5c:
                    43:7b:c4:14:ec:e4:fd:12:a5:e8:bd:1a:30:02:6a:
                    bc:7f:fc:39:94:00:3c:4c:14:54:c7:c0:e6:93:38:
                    ff:26:d0:de:6e:89:cf:2f:fd:7b:ad:e5:40:cd:88:
                    0e:bd:74:80:0a:2f:80:b8:0e:3d:01:5d:5f:21:fc:
                    0b:14:ef:a8:c5:05:d2:00:f9:3a:64:d3:57:92:11:
                    ab:97:f8:02:5b:52:63:86:99:5a:67:84:4e:cb:57:
                    5c:b0:18:ca:aa:86:4e:3f:e2:c8:af:40:a0:60:b2:
                    7a:f3:81:e2:e6:ab:67:b4:f6:99:6f:fc:ad:69:d6:
                    e3:e4:a4:e1:8f:67:9a:f3:7c:5d:90:e9:5a:00:5f:
                    dc:bd:a7:d4:81:65:ba:d9:7a:58:f7:34:e4:ae:c4:
                    fa:99:6e:8a:de:02:53:80:93:b4:06:3d:a8:38:6c:
                    db:e5
                Exponent: 65537 (0x10001)
        X509v3 extensions:
            X509v3 Basic Constraints: 
                CA:FALSE
            X509v3 Key Usage: 
                Digital Signature, Non Repudiation, Key Encipherment
            X509v3 Subject Alternative Name: 
                DNS:localhost, DNS:116.62.157.183, DNS:isoftstone.com
    Signature Algorithm: sha256WithRSAEncryption
         68:d8:98:b6:e5:4e:dd:ea:79:33:05:81:f6:d7:89:02:4b:17:
         ec:ce:6f:1c:0b:61:11:e5:34:24:40:87:ac:4d:df:10:1a:87:
         dd:d6:53:f1:b4:b1:6a:38:87:9a:7f:23:a7:80:b3:31:02:e4:
         ed:42:64:f2:ef:55:3c:73:c1:01:43:56:19:1c:9d:0b:75:29:
         ae:82:de:8e:ee:57:3f:06:0b:b9:4e:6c:d6:3c:0e:29:7b:ef:
         a0:13:ca:72:a7:84:35:47:75:e1:ea:b6:c3:be:27:ab:9e:87:
         e4:bd:66:a8:15:76:38:94:af:54:de:7f:d5:cb:58:ca:b1:59:
         5d:ea:ab:a6:a9:81:fc:81:2b:69:2b:10:93:42:2f:e5:03:88:
         e7:8b:09:63:dc:7a:cd:10:84:c4:e7:e8:9c:19:7a:d6:c1:d2:
         86:9e:87:66:b1:2a:d9:fa:db:6b:5f:a8:a0:af:6f:c7:48:08:
         d1:88:0f:38:26:80:29:43:5b:26:2b:89:8e:8f:84:bb:46:2f:
         de:db:86:b2:6a:2d:ab:c1:15:6a:1f:07:9d:96:f2:e9:6a:e8:
         be:13:c5:2b:d5:04:14:c9:33:86:ab:86:23:a2:c3:af:fc:05:
         5c:7b:55:74:5b:5d:07:c8:45:df:5c:46:49:ea:57:4e:68:78:
         91:4c:75:ca
-----BEGIN CERTIFICATE-----
MIID4TCCAsmgAwIBAgIBADANBgkqhkiG9w0BAQsFADCBkzELMAkGA1UEBhMCQ04x
EDAOBgNVBAgMB0ppYW5nU3UxEDAOBgNVBAcMB05hbkppbmcxEzARBgNVBAoMCmlz
b2Z0c3RvbmUxCzAJBgNVBAsMAnNkMRcwFQYDVQQDDA5pc29mdHN0b25lLmNvbTEl
MCMGCSqGSIb3DQEJARYWeGlubGluZEBpc29mdHN0b25lLmNvbTAeFw0xNzExMTgw
MzExNTlaFw0xODExMTgwMzEyMDBaMIGBMQswCQYDVQQGEwJDTjEQMA4GA1UECAwH
SmlhbmdTdTETMBEGA1UECgwKaXNvZnRzdG9uZTELMAkGA1UECwwCc2QxFzAVBgNV
BAMMDmlzb2Z0c3RvbmUuY29tMSUwIwYJKoZIhvcNAQkBFhZ4aW5saW5kQGlzb2Z0
c3RvbmUuY29tMIIBIjANBgkqhkiG9w0BAQEFAAOCAQ8AMIIBCgKCAQEA2hO1iZoK
4fYfpziZQz8RlDFhih+tGNHLQcXaQzFQoG/RbE/MPRaoIdZ1Ry5wNF4Z06rO+Uyz
wMwHf4hWZc5pwaRcRnomW+mFYbVRiUl3eAYNgpyhzfSuQ1xDe8QU7OT9EqXovRow
Amq8f/w5lAA8TBRUx8Dmkzj/JtDebonPL/17reVAzYgOvXSACi+AuA49AV1fIfwL
FO+oxQXSAPk6ZNNXkhGrl/gCW1JjhplaZ4ROy1dcsBjKqoZOP+LIr0CgYLJ684Hi
5qtntPaZb/ytadbj5KThj2ea83xdkOlaAF/cvafUgWW62XpY9zTkrsT6mW6K3gJT
gJO0Bj2oOGzb5QIDAQABo1AwTjAJBgNVHRMEAjAAMAsGA1UdDwQEAwIF4DA0BgNV
HREELTArgglsb2NhbGhvc3SCDjExNi42Mi4xNTcuMTgzgg5pc29mdHN0b25lLmNv
bTANBgkqhkiG9w0BAQsFAAOCAQEAaNiYtuVO3ep5MwWB9teJAksX7M5vHAthEeU0
JECHrE3fEBqH3dZT8bSxajiHmn8jp4CzMQLk7UJk8u9VPHPBAUNWGRydC3UproLe
ju5XPwYLuU5s1jwOKXvvoBPKcqeENUd14eq2w74nq56H5L1mqBV2OJSvVN5/1ctY
yrFZXeqrpqmB/IEraSsQk0Iv5QOI54sJY9x6zRCExOfonBl61sHShp6HZrEq2frb
a1+ooK9vx0gI0YgPOCaAKUNbJiuJjo+Eu0Yv3tuGsmotq8EVah8HnZby6WrovhPF
K9UEFMkzhquGI6LDr/wFXHtVdFtdB8hF31xGSepXTmh4kUx1yg==
-----END CERTIFICATE-----
